; ModuleID = 'source-C-CXX/26/79.c'
source_filename = "source-C-CXX/26/79.c"
target datalayout = "e-m:e-p270:32:32-p271:32:32-p272:64:64-i64:64-f80:128-n8:16:32:64-S128"
target triple = "x86_64-pc-linux-gnu"

@.str = private unnamed_addr constant [3 x i8] c"%d\00", align 1
@.str.1 = private unnamed_addr constant [12 x i8] c"%lf %lf %lf\00", align 1
@.str.2 = private unnamed_addr constant [13 x i8] c"x1=x2=%.5lf\0A\00", align 1
@.str.3 = private unnamed_addr constant [19 x i8] c"x1=%.5lf;x2=%.5lf\0A\00", align 1
@.str.4 = private unnamed_addr constant [33 x i8] c"x1=%.5lf+%.5lfi;x2=%.5lf-%.5lfi\0A\00", align 1

; Function Attrs: nofree nounwind sspstrong uwtable
define dso_local void @main() local_unnamed_addr #0 {
  %1 = alloca i32, align 4
  %2 = alloca double, align 8
  %3 = alloca double, align 8
  %4 = alloca double, align 8
  %5 = bitcast i32* %1 to i8*
  call void @llvm.lifetime.start.p0i8(i64 4, i8* nonnull %5) #5
  %6 = bitcast double* %2 to i8*
  call void @llvm.lifetime.start.p0i8(i64 8, i8* nonnull %6) #5
  %7 = bitcast double* %3 to i8*
  call void @llvm.lifetime.start.p0i8(i64 8, i8* nonnull %7) #5
  %8 = bitcast double* %4 to i8*
  call void @llvm.lifetime.start.p0i8(i64 8, i8* nonnull %8) #5
  %9 = call i32 (i8*, ...) @__isoc99_scanf(i8* getelementptr inbounds ([3 x i8], [3 x i8]* @.str, i64 0, i64 0), i32* nonnull %1)
  %10 = load i32, i32* %1, align 4, !tbaa !5
  %11 = icmp sgt i32 %10, 0
  br i1 %11, label %12, label %58

12:                                               ; preds = %0, %54
  %13 = phi i32 [ %55, %54 ], [ 0, %0 ]
  %14 = call i32 (i8*, ...) @__isoc99_scanf(i8* getelementptr inbounds ([12 x i8], [12 x i8]* @.str.1, i64 0, i64 0), double* nonnull %2, double* nonnull %3, double* nonnull %4)
  %15 = load double, double* %2, align 8, !tbaa !9
  %16 = fmul double %15, 2.000000e+00
  %17 = load double, double* %3, align 8, !tbaa !9
  %18 = fmul double %17, %17
  %19 = fmul double %15, 4.000000e+00
  %20 = load double, double* %4, align 8, !tbaa !9
  %21 = fmul double %19, %20
  %22 = fsub double %18, %21
  %23 = call double @sqrt(double %22) #5
  %24 = call double @llvm.fabs.f64(double %23)
  %25 = fcmp ugt double %24, 0x3EB0C6F7A0B5ED8D
  br i1 %25, label %33, label %26

26:                                               ; preds = %12
  %27 = load double, double* %3, align 8, !tbaa !9
  %28 = fneg double %27
  %29 = load double, double* %2, align 8, !tbaa !9
  %30 = fmul double %29, 2.000000e+00
  %31 = fdiv double %28, %30
  %32 = call i32 (i8*, ...) @printf(i8* nonnull dereferenceable(1) getelementptr inbounds ([13 x i8], [13 x i8]* @.str.2, i64 0, i64 0), double %31)
  br label %54

33:                                               ; preds = %12
  %34 = fcmp ogt double %23, 0x3EB0C6F7A0B5ED8D
  %35 = load double, double* %3, align 8, !tbaa !9
  %36 = fneg double %35
  br i1 %34, label %37, label %43

37:                                               ; preds = %33
  %38 = fsub double %23, %35
  %39 = fdiv double %38, %16
  %40 = fsub double %36, %23
  %41 = fdiv double %40, %16
  %42 = call i32 (i8*, ...) @printf(i8* nonnull dereferenceable(1) getelementptr inbounds ([19 x i8], [19 x i8]* @.str.3, i64 0, i64 0), double %39, double %41)
  br label %54

43:                                               ; preds = %33
  %44 = fdiv double %36, %16
  %45 = load double, double* %2, align 8, !tbaa !9
  %46 = fmul double %45, 4.000000e+00
  %47 = load double, double* %4, align 8, !tbaa !9
  %48 = fmul double %46, %47
  %49 = fmul double %35, %35
  %50 = fsub double %48, %49
  %51 = call double @sqrt(double %50) #5
  %52 = fdiv double %51, %16
  %53 = call i32 (i8*, ...) @printf(i8* nonnull dereferenceable(1) getelementptr inbounds ([33 x i8], [33 x i8]* @.str.4, i64 0, i64 0), double %44, double %52, double %44, double %52)
  br label %54

54:                                               ; preds = %26, %43, %37
  %55 = add nuw nsw i32 %13, 1
  %56 = load i32, i32* %1, align 4, !tbaa !5
  %57 = icmp slt i32 %55, %56
  br i1 %57, label %12, label %58, !llvm.loop !11

58:                                               ; preds = %54, %0
  call void @llvm.lifetime.end.p0i8(i64 8, i8* nonnull %8) #5
  call void @llvm.lifetime.end.p0i8(i64 8, i8* nonnull %7) #5
  call void @llvm.lifetime.end.p0i8(i64 8, i8* nonnull %6) #5
  call void @llvm.lifetime.end.p0i8(i64 4, i8* nonnull %5) #5
  ret void
}

; Function Attrs: argmemonly mustprogress nofree nosync nounwind willreturn
declare void @llvm.lifetime.start.p0i8(i64 immarg, i8* nocapture) #1

; Function Attrs: nofree nounwind
declare noundef i32 @__isoc99_scanf(i8* nocapture noundef readonly, ...) local_unnamed_addr #2

; Function Attrs: mustprogress nofree nounwind willreturn
declare double @sqrt(double) local_unnamed_addr #3

; Function Attrs: mustprogress nofree nosync nounwind readnone speculatable willreturn
declare double @llvm.fabs.f64(double) #4

; Function Attrs: nofree nounwind
declare noundef i32 @printf(i8* nocapture noundef readonly, ...) local_unnamed_addr #2

; Function Attrs: argmemonly mustprogress nofree nosync nounwind willreturn
declare void @llvm.lifetime.end.p0i8(i64 immarg, i8* nocapture) #1


!llvm.module.flags = !{!0, !1, !2, !3}
!llvm.ident = !{!4}

!0 = !{i32 1, !"wchar_size", i32 4}
!1 = !{i32 7, !"PIC Level", i32 2}
!2 = !{i32 7, !"PIE Level", i32 2}
!3 = !{i32 7, !"uwtable", i32 1}
!4 = !{!"clang version 13.0.0"}
!5 = !{!6, !6, i64 0}
!6 = !{!"int", !7, i64 0}
!7 = !{!"omnipotent char", !8, i64 0}
!8 = !{!"Simple C/C++ TBAA"}
!9 = !{!10, !10, i64 0}
!10 = !{!"double", !7, i64 0}
!11 = distinct !{!11, !12}
!12 = !{!"llvm.loop.mustprogress"}
